Certificate:
    Data:
        Version: 3 (0x2)
        Serial Number: 268435666 (0x100000d2)
        Signature Algorithm: sha256WithRSAEncryption
        Issuer: C=DE, ST=Hessen, O=privacyidea, CN=CA001
        Validity
            Not Before: Oct  2 23:30:40 2020 GMT
            Not After : Oct  2 23:30:40 2021 GMT
        Subject: C=DE, ST=Hessen, O=privacyidea, CN=requester.localdomain
        Subject Public Key Info:
            Public Key Algorithm: rsaEncryption
                RSA Public-Key: (2048 bit)
                Modulus:
                    00:cd:be:14:4f:fa:ce:01:3f:42:22:1b:1d:9c:af:
                    dd:92:d2:7f:db:6c:b7:3e:39:43:43:6b:13:03:f1:
                    05:f4:07:74:bc:76:69:28:0b:af:19:8e:d7:fc:e3:
                    cd:c6:58:f2:ca:7f:08:6d:53:fc:07:02:44:24:c6:
                    b4:34:4c:8c:04:fe:33:0e:40:e2:20:ba:02:73:5a:
                    f7:f5:4f:63:6e:cc:c6:b6:df:54:1d:37:39:7d:51:
                    36:26:5f:bd:dc:3f:a8:8b:6b:a2:ae:b6:9d:d6:21:
                    e7:df:41:b8:7a:28:2a:68:48:ca:a8:2d:ed:e1:e9:
                    46:5e:5a:72:6d:b4:84:38:87:91:fd:94:11:0b:28:
                    84:c6:c2:2f:2a:fb:01:f9:36:7a:09:75:d1:33:88:
                    3c:73:41:5b:c8:bf:94:89:70:a1:f0:c0:b9:2e:50:
                    53:1e:b1:17:64:69:f4:2d:81:e0:a9:0d:0e:32:e9:
                    ba:55:8a:85:f1:1b:6f:49:79:b4:7f:88:c3:0d:3e:
                    54:88:9b:3d:1f:38:8c:04:f3:ee:6a:63:2b:f5:c6:
                    db:b4:83:aa:c4:78:41:3a:7d:4b:e1:c8:3e:71:ca:
                    1b:61:59:ea:c6:c4:ca:32:5e:c9:e9:bf:12:29:e6:
                    c6:c3:63:fe:a0:55:da:7a:f1:60:98:4d:26:ed:fa:
                    70:2d
                Exponent: 65537 (0x10001)
        X509v3 extensions:
            X509v3 Key Usage: 
                Digital Signature, Key Encipherment
            X509v3 Basic Constraints: 
                CA:FALSE
            Netscape Cert Type: 
                SSL Server
            Netscape Comment: 
                OpenSSL Generated Server Certificate
            X509v3 Subject Key Identifier: 
                53:3F:ED:5D:09:07:B3:65:7B:AB:45:C9:24:5B:09:77:80:0A:96:ED
            X509v3 Authority Key Identifier: 
                keyid:F4:A7:C0:CC:91:46:AF:64:F3:91:F2:27:F8:C8:B2:6F:8A:87:32:73
                DirName:/C=DE/ST=Hessen/O=privacyidea/CN=CA001
                serial:FB:C8:EB:AC:83:CD:12:07

            X509v3 Extended Key Usage: 
                TLS Web Server Authentication
    Signature Algorithm: sha256WithRSAEncryption
         81:7c:09:1e:2b:e4:69:a9:72:67:81:5a:5b:7d:77:04:ee:d0:
         3e:f4:61:13:bd:d1:44:f2:ea:78:99:9c:76:04:44:03:75:e6:
         9b:41:6d:fd:6b:83:ff:f8:f5:b9:44:57:23:e5:b9:cf:19:35:
         b1:2a:b9:9c:c4:61:f0:e1:19:df:9e:e6:6b:04:fa:0e:38:3e:
         1d:8c:ea:ca:cd:45:b1:7f:ac:49:a0:ef:90:3a:d1:cc:3b:f5:
         d5:54:c7:9e:af:92:31:2a:6a:ff:41:df:b3:90:37:e7:d8:4e:
         42:97:c1:24:82:01:41:88:0f:8c:60:97:31:32:ad:39:33:ec:
         8e:fb:c5:42:64:2a:b0:be:77:f8:09:1f:1c:f9:e7:a9:df:66:
         fe:50:69:65:5c:11:11:1e:93:f9:e1:2f:df:fc:46:78:3b:43:
         21:d7:13:b3:df:27:21:38:2a:75:9d:59:0b:6c:ea:7c:ed:55:
         ba:00:33:b4:5c:0a:80:a8:49:8e:78:79:97:fe:50:3b:2a:40:
         3b:6c:cb:f5:1f:1b:15:ea:30:f2:8f:73:3b:95:4d:93:cf:75:
         10:e5:5c:83:1d:d7:8c:b8:5b:13:b9:46:e7:01:3b:3f:d0:82:
         26:16:ad:7d:e2:10:84:6b:95:b1:7c:ac:d6:2f:f3:04:b1:45:
         19:37:a1:b4
-----BEGIN CERTIFICATE-----
MIIEJjCCAw6gAwIBAgIEEAAA0jANBgkqhkiG9w0BAQsFADBEMQswCQYDVQQGEwJE
RTEPMA0GA1UECAwGSGVzc2VuMRQwEgYDVQQKDAtwcml2YWN5aWRlYTEOMAwGA1UE
AwwFQ0EwMDEwHhcNMjAxMDAyMjMzMDQwWhcNMjExMDAyMjMzMDQwWjBUMQswCQYD
VQQGEwJERTEPMA0GA1UECAwGSGVzc2VuMRQwEgYDVQQKDAtwcml2YWN5aWRlYTEe
MBwGA1UEAwwVcmVxdWVzdGVyLmxvY2FsZG9tYWluMIIBIjANBgkqhkiG9w0BAQEF
AAOCAQ8AMIIBCgKCAQEAzb4UT/rOAT9CIhsdnK/dktJ/22y3PjlDQ2sTA/EF9Ad0
vHZpKAuvGY7X/OPNxljyyn8IbVP8BwJEJMa0NEyMBP4zDkDiILoCc1r39U9jbszG
tt9UHTc5fVE2Jl+93D+oi2uirrad1iHn30G4eigqaEjKqC3t4elGXlpybbSEOIeR
/ZQRCyiExsIvKvsB+TZ6CXXRM4g8c0FbyL+UiXCh8MC5LlBTHrEXZGn0LYHgqQ0O
Mum6VYqF8RtvSXm0f4jDDT5UiJs9HziMBPPuamMr9cbbtIOqxHhBOn1L4cg+ccob
YVnqxsTKMl7J6b8SKebGw2P+oFXaevFgmE0m7fpwLQIDAQABo4IBDjCCAQowCwYD
VR0PBAQDAgWgMAkGA1UdEwQCMAAwEQYJYIZIAYb4QgEBBAQDAgZAMDMGCWCGSAGG
+EIBDQQmFiRPcGVuU1NMIEdlbmVyYXRlZCBTZXJ2ZXIgQ2VydGlmaWNhdGUwHQYD
VR0OBBYEFFM/7V0JB7Nle6tFySRbCXeACpbtMHQGA1UdIwRtMGuAFPSnwMyRRq9k
85HyJ/jIsm+KhzJzoUikRjBEMQswCQYDVQQGEwJERTEPMA0GA1UECAwGSGVzc2Vu
MRQwEgYDVQQKDAtwcml2YWN5aWRlYTEOMAwGA1UEAwwFQ0EwMDGCCQD7yOusg80S
BzATBgNVHSUEDDAKBggrBgEFBQcDATANBgkqhkiG9w0BAQsFAAOCAQEAgXwJHivk
aalyZ4FaW313BO7QPvRhE73RRPLqeJmcdgREA3Xmm0Ft/WuD//j1uURXI+W5zxk1
sSq5nMRh8OEZ357mawT6Djg+HYzqys1FsX+sSaDvkDrRzDv11VTHnq+SMSpq/0Hf
s5A359hOQpfBJIIBQYgPjGCXMTKtOTPsjvvFQmQqsL53+AkfHPnnqd9m/lBpZVwR
ER6T+eEv3/xGeDtDIdcTs98nITgqdZ1ZC2zqfO1VugAztFwKgKhJjnh5l/5QOypA
O2zL9R8bFeow8o9zO5VNk891EOVcgx3XjLhbE7lG5wE7P9CCJhatfeIQhGuVsXys
1i/zBLFFGTehtA==
-----END CERTIFICATE-----
