Certificate:
    Data:
        Version: 3 (0x2)
        Serial Number: 268435668 (0x100000d4)
        Signature Algorithm: sha256WithRSAEncryption
        Issuer: C=DE, ST=Hessen, O=privacyidea, CN=CA001
        Validity
            Not Before: Oct  2 23:34:00 2020 GMT
            Not After : Oct  2 23:34:00 2021 GMT
        Subject: CN=selfservice,CN=user,O=realm1/emailAddress=meine
        Subject Public Key Info:
            Public Key Algorithm: rsaEncryption
                RSA Public-Key: (2048 bit)
                Modulus:
                    00:cf:3c:d4:33:0e:12:c4:e6:da:cd:b6:56:a1:1c:
                    26:bb:26:1c:8a:4a:73:a8:58:8a:b6:1e:b3:8b:99:
                    d2:1d:07:c2:92:89:79:c0:69:d8:c8:df:28:61:98:
                    1e:b3:fe:ae:2b:bd:78:a9:f7:6e:47:dc:a3:a0:16:
                    8c:85:02:c1:4e:92:fd:72:6e:f0:c8:03:29:9b:b8:
                    00:6e:c0:83:95:c8:34:20:36:9c:b3:e5:e4:e6:76:
                    73:a3:1a:ad:40:96:e0:53:54:00:ec:76:79:9a:c6:
                    0d:7e:b6:bd:29:ec:83:f3:cb:89:a4:cb:6c:00:ba:
                    0c:c5:78:0f:ff:69:b8:94:f4:04:70:43:3f:d8:9e:
                    d7:a7:fb:5d:ce:75:8e:da:e7:c4:07:b1:9d:de:6f:
                    88:4b:b6:4d:9a:cf:f9:bc:fa:9f:cd:32:6d:f6:3a:
                    0b:0d:23:42:78:ec:97:42:bf:0e:4d:60:56:e1:d3:
                    02:f2:19:cb:84:57:90:e5:70:a1:a2:83:35:86:e2:
                    da:86:9f:f9:8a:c4:79:b3:52:28:da:cb:bb:34:ca:
                    d3:da:91:4a:cf:8d:76:a2:b2:6b:9b:f9:96:fd:09:
                    2a:da:11:23:4d:f0:cb:d6:b2:b1:0e:12:6c:9a:19:
                    65:98:87:ca:e4:ee:24:ce:44:ac:90:8f:9d:1b:c5:
                    2a:9d
                Exponent: 65537 (0x10001)
        X509v3 extensions:
            X509v3 Key Usage: 
                Digital Signature, Key Encipherment
            X509v3 Basic Constraints: 
                CA:FALSE
            Netscape Cert Type: 
                SSL Server
            Netscape Comment: 
                OpenSSL Generated Server Certificate
            X509v3 Subject Key Identifier: 
                4D:07:90:AD:FF:1D:0D:E7:1A:DD:D6:2E:FA:BA:34:CB:AA:1F:24:C6
            X509v3 Authority Key Identifier: 
                keyid:F4:A7:C0:CC:91:46:AF:64:F3:91:F2:27:F8:C8:B2:6F:8A:87:32:73
                DirName:/C=DE/ST=Hessen/O=privacyidea/CN=CA001
                serial:FB:C8:EB:AC:83:CD:12:07

            X509v3 Extended Key Usage: 
                TLS Web Server Authentication
    Signature Algorithm: sha256WithRSAEncryption
         5b:9d:4c:85:c7:f8:8b:94:22:cb:00:38:c8:3a:f9:ad:94:dd:
         78:bf:d6:b7:08:76:8d:4a:43:60:aa:f5:ab:d4:3d:84:7f:ed:
         f0:97:3a:bf:7d:9e:4f:a1:39:51:d7:d7:a2:55:ad:98:1d:7b:
         f1:15:73:91:dd:42:4f:52:ab:a9:5c:76:a7:74:44:1d:2f:ee:
         50:d2:80:31:f9:6d:e1:a2:53:1b:55:15:12:51:b1:d7:12:e5:
         80:99:10:81:34:2a:4e:52:3a:b7:fa:92:5f:07:4a:48:54:2c:
         ec:57:d7:81:e7:05:6e:12:96:09:a1:38:e9:f2:5a:d7:10:5d:
         a5:5c:d7:22:a2:7e:8f:c9:95:73:68:e3:8e:b9:39:39:ba:72:
         98:b3:6c:2b:28:93:9d:f8:7a:62:29:38:e7:62:96:b6:06:06:
         ac:2a:50:4a:65:f4:50:c0:59:8b:66:d0:51:0c:14:95:3d:c6:
         19:f7:36:f9:35:92:76:bc:29:61:04:ab:5d:df:08:cf:22:2f:
         56:48:e7:df:3b:c5:90:ca:85:37:9d:50:aa:5e:f5:2c:97:37:
         43:80:29:76:ba:4a:53:76:81:d3:ad:86:80:48:68:67:b2:ad:
         1a:5f:ee:38:70:e8:22:b2:20:0f:98:5d:58:c1:d0:19:bc:2e:
         66:31:29:90
-----BEGIN CERTIFICATE-----
MIIEDzCCAvegAwIBAgIEEAAA1DANBgkqhkiG9w0BAQsFADBEMQswCQYDVQQGEwJE
RTEPMA0GA1UECAwGSGVzc2VuMRQwEgYDVQQKDAtwcml2YWN5aWRlYTEOMAwGA1UE
AwwFQ0EwMDEwHhcNMjAxMDAyMjMzNDAwWhcNMjExMDAyMjMzNDAwWjA9MSUwIwYD
VQQDDBxzZWxmc2VydmljZSxDTj11c2VyLE89cmVhbG0xMRQwEgYJKoZIhvcNAQkB
FgVtZWluZTCCASIwDQYJKoZIhvcNAQEBBQADggEPADCCAQoCggEBAM881DMOEsTm
2s22VqEcJrsmHIpKc6hYirYes4uZ0h0HwpKJecBp2MjfKGGYHrP+riu9eKn3bkfc
o6AWjIUCwU6S/XJu8MgDKZu4AG7Ag5XINCA2nLPl5OZ2c6MarUCW4FNUAOx2eZrG
DX62vSnsg/PLiaTLbAC6DMV4D/9puJT0BHBDP9ie16f7Xc51jtrnxAexnd5viEu2
TZrP+bz6n80ybfY6Cw0jQnjsl0K/Dk1gVuHTAvIZy4RXkOVwoaKDNYbi2oaf+YrE
ebNSKNrLuzTK09qRSs+NdqKya5v5lv0JKtoRI03wy9aysQ4SbJoZZZiHyuTuJM5E
rJCPnRvFKp0CAwEAAaOCAQ4wggEKMAsGA1UdDwQEAwIFoDAJBgNVHRMEAjAAMBEG
CWCGSAGG+EIBAQQEAwIGQDAzBglghkgBhvhCAQ0EJhYkT3BlblNTTCBHZW5lcmF0
ZWQgU2VydmVyIENlcnRpZmljYXRlMB0GA1UdDgQWBBRNB5Ct/x0N5xrd1i76ujTL
qh8kxjB0BgNVHSMEbTBrgBT0p8DMkUavZPOR8if4yLJviocyc6FIpEYwRDELMAkG
A1UEBhMCREUxDzANBgNVBAgMBkhlc3NlbjEUMBIGA1UECgwLcHJpdmFjeWlkZWEx
DjAMBgNVBAMMBUNBMDAxggkA+8jrrIPNEgcwEwYDVR0lBAwwCgYIKwYBBQUHAwEw
DQYJKoZIhvcNAQELBQADggEBAFudTIXH+IuUIssAOMg6+a2U3Xi/1rcIdo1KQ2Cq
9avUPYR/7fCXOr99nk+hOVHX16JVrZgde/EVc5HdQk9Sq6lcdqd0RB0v7lDSgDH5
beGiUxtVFRJRsdcS5YCZEIE0Kk5SOrf6kl8HSkhULOxX14HnBW4SlgmhOOnyWtcQ
XaVc1yKifo/JlXNo4465OTm6cpizbCsok534emIpOOdilrYGBqwqUEpl9FDAWYtm
0FEMFJU9xhn3Nvk1kna8KWEEq13fCM8iL1ZI5987xZDKhTedUKpe9SyXN0OAKXa6
SlN2gdOthoBIaGeyrRpf7jhw6CKyIA+YXVjB0Bm8LmYxKZA=
-----END CERTIFICATE-----
