Certificate:
    Data:
        Version: 3 (0x2)
        Serial Number: 268435667 (0x100000d3)
        Signature Algorithm: sha256WithRSAEncryption
        Issuer: C=DE, ST=Hessen, O=privacyidea, CN=CA001
        Validity
            Not Before: Oct  2 23:30:41 2020 GMT
            Not After : Oct  2 23:30:41 2021 GMT
        Subject: OU=realm1, CN=cornelius/emailAddress=user@localhost.localdomain
        Subject Public Key Info:
            Public Key Algorithm: rsaEncryption
                RSA Public-Key: (2048 bit)
                Modulus:
                    00:ac:c8:5b:2a:f7:ac:b1:e4:42:9a:80:ab:ab:15:
                    ac:d2:f3:19:6b:96:1f:62:1a:80:76:c2:2e:8d:b6:
                    70:6c:86:9d:67:57:52:49:d3:ad:ea:21:81:c2:50:
                    a0:4c:92:70:0f:91:c8:fb:22:14:c6:3e:d9:31:4e:
                    68:4d:c4:d9:28:0c:8f:f9:87:f1:19:f6:09:dd:67:
                    ac:85:66:1c:e4:ed:e0:36:6a:97:4d:b0:6c:b9:64:
                    12:86:98:03:cf:fc:45:95:c0:e0:ce:81:14:49:95:
                    01:7b:29:84:95:bd:ed:7c:91:da:9b:f3:68:f3:79:
                    eb:12:21:31:17:62:18:7a:51:e7:6c:15:ce:83:ce:
                    17:59:33:bc:54:da:4f:87:a6:f2:3f:4f:29:24:fb:
                    49:8c:74:36:8b:8a:80:4e:a8:55:fb:eb:ae:8d:75:
                    08:69:fa:42:89:37:46:b6:10:c1:98:c9:b4:86:60:
                    73:69:15:09:34:91:96:3a:4c:f3:cf:a7:61:3e:31:
                    76:f8:82:ac:72:7e:5d:bf:90:92:c6:9c:fa:54:b4:
                    d9:49:06:42:9f:be:de:90:c0:97:c3:b4:7e:01:69:
                    7d:4d:ea:21:56:15:9f:16:52:44:81:17:c9:04:1a:
                    3d:81:24:c0:bb:1e:7f:24:5b:57:c5:00:c8:ef:77:
                    c8:2d
                Exponent: 65537 (0x10001)
        X509v3 extensions:
            X509v3 Key Usage: 
                Digital Signature, Key Encipherment
            X509v3 Basic Constraints: 
                CA:FALSE
            Netscape Cert Type: 
                SSL Server
            Netscape Comment: 
                OpenSSL Generated Server Certificate
            X509v3 Subject Key Identifier: 
                1B:F6:57:94:D0:76:A8:34:85:30:06:EE:1D:E0:69:59:04:04:46:8B
            X509v3 Authority Key Identifier: 
                keyid:F4:A7:C0:CC:91:46:AF:64:F3:91:F2:27:F8:C8:B2:6F:8A:87:32:73
                DirName:/C=DE/ST=Hessen/O=privacyidea/CN=CA001
                serial:FB:C8:EB:AC:83:CD:12:07

            X509v3 Extended Key Usage: 
                TLS Web Server Authentication
    Signature Algorithm: sha256WithRSAEncryption
         1a:87:93:75:be:93:70:85:cf:5d:27:7b:33:8a:07:38:25:73:
         c0:41:7a:e9:e6:bb:f8:66:08:9c:74:76:0b:1a:2a:b7:77:03:
         8a:2d:55:75:84:d7:91:4c:f9:58:99:5f:1d:eb:da:49:f2:39:
         f3:b2:92:68:03:3c:fd:87:08:de:23:74:e0:25:49:ea:a6:05:
         f8:d6:c6:d0:ba:9c:1c:32:30:69:e7:bf:30:14:9b:8a:2f:86:
         52:c7:5d:dc:23:c2:91:9f:5e:29:23:c9:b4:dc:37:67:37:f4:
         ba:44:e8:12:24:66:73:3a:cb:1f:b1:57:51:ba:ac:04:0e:f3:
         f0:05:73:84:79:cf:58:ca:08:64:c4:f8:e8:a0:4c:70:9d:61:
         0f:be:92:bb:86:bc:13:7d:85:bf:99:92:68:75:4c:31:9c:54:
         14:a6:d4:79:40:e3:0b:7d:37:96:00:c5:36:44:6e:54:c2:77:
         60:b6:39:6a:e2:74:e8:79:8f:4e:5d:0d:d9:82:e0:60:81:42:
         72:0d:f0:e6:7e:60:53:d3:6f:89:52:bf:b3:c0:78:96:38:85:
         d1:2f:3e:0c:b2:43:6c:af:0e:38:4e:0c:86:b1:14:e6:67:66:
         12:e3:56:d8:b5:3d:2c:d7:f6:5f:43:f8:f8:2e:fe:4e:70:5b:
         1d:1d:79:60
-----BEGIN CERTIFICATE-----
MIIEIjCCAwqgAwIBAgIEEAAA0zANBgkqhkiG9w0BAQsFADBEMQswCQYDVQQGEwJE
RTEPMA0GA1UECAwGSGVzc2VuMRQwEgYDVQQKDAtwcml2YWN5aWRlYTEOMAwGA1UE
AwwFQ0EwMDEwHhcNMjAxMDAyMjMzMDQxWhcNMjExMDAyMjMzMDQxWjBQMQ8wDQYD
VQQLDAZyZWFsbTExEjAQBgNVBAMMCWNvcm5lbGl1czEpMCcGCSqGSIb3DQEJARYa
dXNlckBsb2NhbGhvc3QubG9jYWxkb21haW4wggEiMA0GCSqGSIb3DQEBAQUAA4IB
DwAwggEKAoIBAQCsyFsq96yx5EKagKurFazS8xlrlh9iGoB2wi6NtnBshp1nV1JJ
063qIYHCUKBMknAPkcj7IhTGPtkxTmhNxNkoDI/5h/EZ9gndZ6yFZhzk7eA2apdN
sGy5ZBKGmAPP/EWVwODOgRRJlQF7KYSVve18kdqb82jzeesSITEXYhh6UedsFc6D
zhdZM7xU2k+HpvI/Tykk+0mMdDaLioBOqFX7666NdQhp+kKJN0a2EMGYybSGYHNp
FQk0kZY6TPPPp2E+MXb4gqxyfl2/kJLGnPpUtNlJBkKfvt6QwJfDtH4BaX1N6iFW
FZ8WUkSBF8kEGj2BJMC7Hn8kW1fFAMjvd8gtAgMBAAGjggEOMIIBCjALBgNVHQ8E
BAMCBaAwCQYDVR0TBAIwADARBglghkgBhvhCAQEEBAMCBkAwMwYJYIZIAYb4QgEN
BCYWJE9wZW5TU0wgR2VuZXJhdGVkIFNlcnZlciBDZXJ0aWZpY2F0ZTAdBgNVHQ4E
FgQUG/ZXlNB2qDSFMAbuHeBpWQQERoswdAYDVR0jBG0wa4AU9KfAzJFGr2TzkfIn
+Miyb4qHMnOhSKRGMEQxCzAJBgNVBAYTAkRFMQ8wDQYDVQQIDAZIZXNzZW4xFDAS
BgNVBAoMC3ByaXZhY3lpZGVhMQ4wDAYDVQQDDAVDQTAwMYIJAPvI66yDzRIHMBMG
A1UdJQQMMAoGCCsGAQUFBwMBMA0GCSqGSIb3DQEBCwUAA4IBAQAah5N1vpNwhc9d
J3szigc4JXPAQXrp5rv4ZgicdHYLGiq3dwOKLVV1hNeRTPlYmV8d69pJ8jnzspJo
Azz9hwjeI3TgJUnqpgX41sbQupwcMjBp578wFJuKL4ZSx13cI8KRn14pI8m03Ddn
N/S6ROgSJGZzOssfsVdRuqwEDvPwBXOEec9YyghkxPjooExwnWEPvpK7hrwTfYW/
mZJodUwxnFQUptR5QOMLfTeWAMU2RG5Uwndgtjlq4nToeY9OXQ3ZguBggUJyDfDm
fmBT02+JUr+zwHiWOIXRLz4MskNsrw44TgyGsRTmZ2YS41bYtT0s1/ZfQ/j4Lv5O
cFsdHXlg
-----END CERTIFICATE-----
